target datalayout = "e-m:e-p270:32:32-p271:32:32-p272:64:64-i64:64-i128:128-f80:128-n8:16:32:64-S128"
target triple = "x86_64-pc-linux-gnu"

%struct.FunctionCallInfoBaseData = type { ptr, ptr, ptr, i32, i8, i16, [0 x %struct.NullableDatum] }
%struct.NullableDatum = type { i64, i8 }

@.str.2 = private unnamed_addr constant [10 x i8] c"SUPERUSER\00", align 1
@.str.3 = private unnamed_addr constant [14 x i8] c"signalfuncs.c\00", align 1
@.str.5 = private unnamed_addr constant [28 x i8] c"pg_signal_autovacuum_worker\00", align 1
@.str.7 = private unnamed_addr constant [18 x i8] c"pg_signal_backend\00", align 1
@.str.8 = private unnamed_addr constant [31 x i8] c"\22timeout\22 must not be negative\00", align 1
@__func__.pg_terminate_backend = private unnamed_addr constant [21 x i8] c"pg_terminate_backend\00", align 1
@.str.9 = private unnamed_addr constant [39 x i8] c"permission denied to terminate process\00", align 1
@.str.10 = private unnamed_addr constant [89 x i8] c"Only roles with the %s attribute may terminate processes of roles with the %s attribute.\00", align 1
@.str.11 = private unnamed_addr constant [78 x i8] c"Only roles with privileges of the \22%s\22 role may terminate autovacuum workers.\00", align 1
@.str.12 = private unnamed_addr constant [137 x i8] c"Only roles with privileges of the role whose process is being terminated or with privileges of the \22%s\22 role may terminate this process.\00", align 1
@.str.17 = private unnamed_addr constant [61 x i8] c"could not check the existence of the backend with PID %d: %m\00", align 1
@__func__.pg_wait_until_termination = private unnamed_addr constant [26 x i8] c"pg_wait_until_termination\00", align 1
@InterruptPending = external global i32, align 4
@MyLatch = external global ptr, align 8
@.str.18 = private unnamed_addr constant [62 x i8] c"backend with PID %d did not terminate within %lld millisecond\00", align 1
@.str.19 = private unnamed_addr constant [63 x i8] c"backend with PID %d did not terminate within %lld milliseconds\00", align 1

; Function Attrs: inlinehint nounwind uwtable
define internal i64 @BoolGetDatum(i1 noundef zeroext %0) #2 {
  %2 = alloca i8, align 1
  %3 = zext i1 %0 to i8
  store i8 %3, ptr %2, align 1
  %4 = load i8, ptr %2, align 1, !range !4, !noundef !5
  %5 = trunc i8 %4 to i1
  %6 = select i1 %5, i32 1, i32 0
  %7 = sext i32 %6 to i64
  ret i64 %7
}

; Function Attrs: nounwind uwtable
define internal zeroext i1 @pg_wait_until_termination(i32 noundef %0, i64 noundef %1) #0 {
  %3 = alloca i1, align 1
  %4 = alloca i32, align 4
  %5 = alloca i64, align 8
  %6 = alloca i64, align 8
  %7 = alloca i64, align 8
  %8 = alloca i32, align 4
  store i32 %0, ptr %4, align 4
  store i64 %1, ptr %5, align 8
  call void @llvm.lifetime.start.p0(i64 8, ptr %6) #8
  store i64 100, ptr %6, align 8
  call void @llvm.lifetime.start.p0(i64 8, ptr %7) #8
  %9 = load i64, ptr %5, align 8
  store i64 %9, ptr %7, align 8
  br label %10

10:                                               ; preds = %58, %2
  %11 = load i64, ptr %7, align 8
  %12 = load i64, ptr %6, align 8
  %13 = icmp slt i64 %11, %12
  br i1 %13, label %14, label %16

14:                                               ; preds = %10
  %15 = load i64, ptr %7, align 8
  store i64 %15, ptr %6, align 8
  br label %16

16:                                               ; preds = %14, %10
  %17 = load i32, ptr %4, align 4
  %18 = call i32 @kill(i32 noundef %17, i32 noundef 0) #8
  %19 = icmp eq i32 %18, -1
  br i1 %19, label %20, label %39

20:                                               ; preds = %16
  %21 = call ptr @__errno_location() #10
  %22 = load i32, ptr %21, align 4
  %23 = icmp eq i32 %22, 3
  br i1 %23, label %24, label %25

24:                                               ; preds = %20
  store i1 true, ptr %3, align 1
  store i32 1, ptr %8, align 4
  br label %75

25:                                               ; preds = %20
  br label %26

26:                                               ; preds = %25
  br i1 true, label %27, label %29

27:                                               ; preds = %26
  %28 = call zeroext i1 @errstart_cold(i32 noundef 21, ptr noundef null) #9
  br i1 %28, label %31, label %35

29:                                               ; preds = %26
  %30 = call zeroext i1 @errstart(i32 noundef 21, ptr noundef null)
  br i1 %30, label %31, label %35

31:                                               ; preds = %29, %27
  %32 = call i32 @errcode(i32 noundef 2600)
  %33 = load i32, ptr %4, align 4
  %34 = call i32 (ptr, ...) @errmsg(ptr noundef @.str.17, i32 noundef %33)
  call void @errfinish(ptr noundef @.str.3, i32 noundef 201, ptr noundef @__func__.pg_wait_until_termination)
  br label %35

35:                                               ; preds = %31, %29, %27
  unreachable

36:                                               ; No predecessors!
  br label %37

37:                                               ; preds = %36
  br label %38

38:                                               ; preds = %37
  br label %39

39:                                               ; preds = %38, %16
  br label %40

40:                                               ; preds = %39
  %41 = load volatile i32, ptr @InterruptPending, align 4
  %42 = icmp ne i32 %41, 0
  %43 = zext i1 %42 to i32
  %44 = sext i32 %43 to i64
  %45 = call i64 @llvm.expect.i64(i64 %44, i64 0)
  %46 = icmp ne i64 %45, 0
  br i1 %46, label %47, label %48

47:                                               ; preds = %40
  call void @ProcessInterrupts()
  br label %48

48:                                               ; preds = %47, %40
  br label %49

49:                                               ; preds = %48
  br label %50

50:                                               ; preds = %49
  %51 = load ptr, ptr @MyLatch, align 8
  %52 = load i64, ptr %6, align 8
  %53 = call i32 @WaitLatch(ptr noundef %51, i32 noundef 41, i64 noundef %52, i32 noundef 134217731)
  %54 = load ptr, ptr @MyLatch, align 8
  call void @ResetLatch(ptr noundef %54)
  %55 = load i64, ptr %6, align 8
  %56 = load i64, ptr %7, align 8
  %57 = sub i64 %56, %55
  store i64 %57, ptr %7, align 8
  br label %58

58:                                               ; preds = %50
  %59 = load i64, ptr %7, align 8
  %60 = icmp sgt i64 %59, 0
  br i1 %60, label %10, label %61, !llvm.loop !6

61:                                               ; preds = %58
  br label %62

62:                                               ; preds = %61
  br i1 false, label %63, label %65

63:                                               ; preds = %62
  %64 = call zeroext i1 @errstart_cold(i32 noundef 19, ptr noundef null) #9
  br i1 %64, label %67, label %72

65:                                               ; preds = %62
  %66 = call zeroext i1 @errstart(i32 noundef 19, ptr noundef null)
  br i1 %66, label %67, label %72

67:                                               ; preds = %65, %63
  %68 = load i64, ptr %5, align 8
  %69 = load i32, ptr %4, align 4
  %70 = load i64, ptr %5, align 8
  %71 = call i32 (ptr, ptr, i64, ...) @errmsg_plural(ptr noundef @.str.18, ptr noundef @.str.19, i64 noundef %68, i32 noundef %69, i64 noundef %70)
  call void @errfinish(ptr noundef @.str.3, i32 noundef 221, ptr noundef @__func__.pg_wait_until_termination)
  br label %72

72:                                               ; preds = %67, %65, %63
  br label %73

73:                                               ; preds = %72
  br label %74

74:                                               ; preds = %73
  store i1 false, ptr %3, align 1
  store i32 1, ptr %8, align 4
  br label %75

75:                                               ; preds = %74, %24
  call void @llvm.lifetime.end.p0(i64 8, ptr %7) #8
  call void @llvm.lifetime.end.p0(i64 8, ptr %6) #8
  %76 = load i1, ptr %3, align 1
  ret i1 %76
}

; Function Attrs: inlinehint nounwind uwtable
define internal i64 @DatumGetInt64(i64 noundef %0) #2 {
  %2 = alloca i64, align 8
  store i64 %0, ptr %2, align 8
  %3 = load i64, ptr %2, align 8
  ret i64 %3
}

; Function Attrs: inlinehint nounwind uwtable
define internal i32 @DatumGetInt32(i64 noundef %0) #2 {
  %2 = alloca i64, align 8
  store i64 %0, ptr %2, align 8
  %3 = load i64, ptr %2, align 8
  %4 = trunc i64 %3 to i32
  ret i32 %4
}

; Function Attrs: nounwind uwtable
define dso_local i64 @pg_terminate_backend(ptr noundef %0) #0 {
  %2 = alloca i64, align 8
  %3 = alloca ptr, align 8
  %4 = alloca i32, align 4
  %5 = alloca i32, align 4
  %6 = alloca i32, align 4
  %7 = alloca i32, align 4
  store ptr %0, ptr %3, align 8
  call void @llvm.lifetime.start.p0(i64 4, ptr %4) #8
  call void @llvm.lifetime.start.p0(i64 4, ptr %5) #8
  call void @llvm.lifetime.start.p0(i64 4, ptr %6) #8
  %8 = load ptr, ptr %3, align 8
  %9 = getelementptr inbounds nuw %struct.FunctionCallInfoBaseData, ptr %8, i32 0, i32 6
  %10 = getelementptr inbounds [0 x %struct.NullableDatum], ptr %9, i64 0, i64 0
  %11 = getelementptr inbounds nuw %struct.NullableDatum, ptr %10, i32 0, i32 0
  %12 = load i64, ptr %11, align 8
  %13 = call i32 @DatumGetInt32(i64 noundef %12)
  store i32 %13, ptr %4, align 4
  %14 = load ptr, ptr %3, align 8
  %15 = getelementptr inbounds nuw %struct.FunctionCallInfoBaseData, ptr %14, i32 0, i32 6
  %16 = getelementptr inbounds [0 x %struct.NullableDatum], ptr %15, i64 0, i64 1
  %17 = getelementptr inbounds nuw %struct.NullableDatum, ptr %16, i32 0, i32 0
  %18 = load i64, ptr %17, align 8
  %19 = call i64 @DatumGetInt64(i64 noundef %18)
  %20 = trunc i64 %19 to i32
  store i32 %20, ptr %6, align 4
  %21 = load i32, ptr %6, align 4
  %22 = icmp slt i32 %21, 0
  br i1 %22, label %23, label %35

23:                                               ; preds = %1
  br label %24

24:                                               ; preds = %23
  br i1 true, label %25, label %27

25:                                               ; preds = %24
  %26 = call zeroext i1 @errstart_cold(i32 noundef 21, ptr noundef null) #9
  br i1 %26, label %29, label %32

27:                                               ; preds = %24
  %28 = call zeroext i1 @errstart(i32 noundef 21, ptr noundef null)
  br i1 %28, label %29, label %32

29:                                               ; preds = %27, %25
  %30 = call i32 @errcode(i32 noundef 50331778)
  %31 = call i32 (ptr, ...) @errmsg(ptr noundef @.str.8)
  call void @errfinish(ptr noundef @.str.3, i32 noundef 249, ptr noundef @__func__.pg_terminate_backend)
  br label %32

32:                                               ; preds = %29, %27, %25
  unreachable

33:                                               ; No predecessors!
  br label %34

34:                                               ; preds = %33
  br label %35

35:                                               ; preds = %34, %1
  %36 = load i32, ptr %4, align 4
  %37 = call i32 @pg_signal_backend(i32 noundef %36, i32 noundef 15)
  store i32 %37, ptr %5, align 4
  %38 = load i32, ptr %5, align 4
  %39 = icmp eq i32 %38, 3
  br i1 %39, label %40, label %53

40:                                               ; preds = %35
  br label %41

41:                                               ; preds = %40
  br i1 true, label %42, label %44

42:                                               ; preds = %41
  %43 = call zeroext i1 @errstart_cold(i32 noundef 21, ptr noundef null) #9
  br i1 %43, label %46, label %50

44:                                               ; preds = %41
  %45 = call zeroext i1 @errstart(i32 noundef 21, ptr noundef null)
  br i1 %45, label %46, label %50

46:                                               ; preds = %44, %42
  %47 = call i32 @errcode(i32 noundef 16797828)
  %48 = call i32 (ptr, ...) @errmsg(ptr noundef @.str.9)
  %49 = call i32 (ptr, ...) @errdetail(ptr noundef @.str.10, ptr noundef @.str.2, ptr noundef @.str.2)
  call void @errfinish(ptr noundef @.str.3, i32 noundef 258, ptr noundef @__func__.pg_terminate_backend)
  br label %50

50:                                               ; preds = %46, %44, %42
  unreachable

51:                                               ; No predecessors!
  br label %52

52:                                               ; preds = %51
  br label %53

53:                                               ; preds = %52, %35
  %54 = load i32, ptr %5, align 4
  %55 = icmp eq i32 %54, 4
  br i1 %55, label %56, label %69

56:                                               ; preds = %53
  br label %57

57:                                               ; preds = %56
  br i1 true, label %58, label %60

58:                                               ; preds = %57
  %59 = call zeroext i1 @errstart_cold(i32 noundef 21, ptr noundef null) #9
  br i1 %59, label %62, label %66

60:                                               ; preds = %57
  %61 = call zeroext i1 @errstart(i32 noundef 21, ptr noundef null)
  br i1 %61, label %62, label %66

62:                                               ; preds = %60, %58
  %63 = call i32 @errcode(i32 noundef 16797828)
  %64 = call i32 (ptr, ...) @errmsg(ptr noundef @.str.9)
  %65 = call i32 (ptr, ...) @errdetail(ptr noundef @.str.11, ptr noundef @.str.5)
  call void @errfinish(ptr noundef @.str.3, i32 noundef 265, ptr noundef @__func__.pg_terminate_backend)
  br label %66

66:                                               ; preds = %62, %60, %58
  unreachable

67:                                               ; No predecessors!
  br label %68

68:                                               ; preds = %67
  br label %69

69:                                               ; preds = %68, %53
  %70 = load i32, ptr %5, align 4
  %71 = icmp eq i32 %70, 2
  br i1 %71, label %72, label %85

72:                                               ; preds = %69
  br label %73

73:                                               ; preds = %72
  br i1 true, label %74, label %76

74:                                               ; preds = %73
  %75 = call zeroext i1 @errstart_cold(i32 noundef 21, ptr noundef null) #9
  br i1 %75, label %78, label %82

76:                                               ; preds = %73
  %77 = call zeroext i1 @errstart(i32 noundef 21, ptr noundef null)
  br i1 %77, label %78, label %82

78:                                               ; preds = %76, %74
  %79 = call i32 @errcode(i32 noundef 16797828)
  %80 = call i32 (ptr, ...) @errmsg(ptr noundef @.str.9)
  %81 = call i32 (ptr, ...) @errdetail(ptr noundef @.str.12, ptr noundef @.str.7)
  call void @errfinish(ptr noundef @.str.3, i32 noundef 272, ptr noundef @__func__.pg_terminate_backend)
  br label %82

82:                                               ; preds = %78, %76, %74
  unreachable

83:                                               ; No predecessors!
  br label %84

84:                                               ; preds = %83
  br label %85

85:                                               ; preds = %84, %69
  %86 = load i32, ptr %5, align 4
  %87 = icmp eq i32 %86, 0
  br i1 %87, label %88, label %97

88:                                               ; preds = %85
  %89 = load i32, ptr %6, align 4
  %90 = icmp sgt i32 %89, 0
  br i1 %90, label %91, label %97

91:                                               ; preds = %88
  %92 = load i32, ptr %4, align 4
  %93 = load i32, ptr %6, align 4
  %94 = sext i32 %93 to i64
  %95 = call zeroext i1 @pg_wait_until_termination(i32 noundef %92, i64 noundef %94)
  %96 = call i64 @BoolGetDatum(i1 noundef zeroext %95)
  store i64 %96, ptr %2, align 8
  store i32 1, ptr %7, align 4
  br label %101

97:                                               ; preds = %88, %85
  %98 = load i32, ptr %5, align 4
  %99 = icmp eq i32 %98, 0
  %100 = call i64 @BoolGetDatum(i1 noundef zeroext %99)
  store i64 %100, ptr %2, align 8
  store i32 1, ptr %7, align 4
  br label %101

101:                                              ; preds = %97, %91
  call void @llvm.lifetime.end.p0(i64 4, ptr %6) #8
  call void @llvm.lifetime.end.p0(i64 4, ptr %5) #8
  call void @llvm.lifetime.end.p0(i64 4, ptr %4) #8
  %102 = load i64, ptr %2, align 8
  ret i64 %102
}