; Function Attrs: nounwind uwtable
define dso_local range(i64 0, 2) i64 @pg_terminate_backend(ptr noundef readonly captures(none) %0) local_unnamed_addr #0 {
  %2 = getelementptr inbounds nuw i8, ptr %0, i64 32
  %3 = load i64, ptr %2, align 8
  %4 = trunc i64 %3 to i32
  %5 = getelementptr inbounds nuw i8, ptr %0, i64 48
  %6 = load i64, ptr %5, align 8
  %7 = trunc i64 %6 to i32
  %8 = icmp slt i32 %7, 0
  br i1 %8, label %9, label %13

9:                                                ; preds = %1
  %10 = tail call zeroext i1 @errstart_cold(i32 noundef 21, ptr noundef null) #7
  tail call void @llvm.assume(i1 %10)
  %11 = tail call i32 @errcode(i32 noundef 50331778) #8
  %12 = tail call i32 (ptr, ...) @errmsg(ptr noundef nonnull @.str.8) #8
  tail call void @errfinish(ptr noundef nonnull @.str.3, i32 noundef 249, ptr noundef nonnull @__func__.pg_terminate_backend) #8
  unreachable

13:                                               ; preds = %1
  %14 = tail call fastcc i32 @pg_signal_backend(i32 noundef %4, i32 noundef 15)
  switch i32 %14, label %30 [
    i32 3, label %15
    i32 4, label %20
    i32 2, label %25
  ]

15:                                               ; preds = %13
  %16 = tail call zeroext i1 @errstart_cold(i32 noundef 21, ptr noundef null) #7
  tail call void @llvm.assume(i1 %16)
  %17 = tail call i32 @errcode(i32 noundef 16797828) #8
  %18 = tail call i32 (ptr, ...) @errmsg(ptr noundef nonnull @.str.9) #8
  %19 = tail call i32 (ptr, ...) @errdetail(ptr noundef nonnull @.str.10, ptr noundef nonnull @.str.2, ptr noundef nonnull @.str.2) #8
  tail call void @errfinish(ptr noundef nonnull @.str.3, i32 noundef 258, ptr noundef nonnull @__func__.pg_terminate_backend) #8
  unreachable

20:                                               ; preds = %13
  %21 = tail call zeroext i1 @errstart_cold(i32 noundef 21, ptr noundef null) #7
  tail call void @llvm.assume(i1 %21)
  %22 = tail call i32 @errcode(i32 noundef 16797828) #8
  %23 = tail call i32 (ptr, ...) @errmsg(ptr noundef nonnull @.str.9) #8
  %24 = tail call i32 (ptr, ...) @errdetail(ptr noundef nonnull @.str.11, ptr noundef nonnull @.str.5) #8
  tail call void @errfinish(ptr noundef nonnull @.str.3, i32 noundef 265, ptr noundef nonnull @__func__.pg_terminate_backend) #8
  unreachable

25:                                               ; preds = %13
  %26 = tail call zeroext i1 @errstart_cold(i32 noundef 21, ptr noundef null) #7
  tail call void @llvm.assume(i1 %26)
  %27 = tail call i32 @errcode(i32 noundef 16797828) #8
  %28 = tail call i32 (ptr, ...) @errmsg(ptr noundef nonnull @.str.9) #8
  %29 = tail call i32 (ptr, ...) @errdetail(ptr noundef nonnull @.str.12, ptr noundef nonnull @.str.7) #8
  tail call void @errfinish(ptr noundef nonnull @.str.3, i32 noundef 272, ptr noundef nonnull @__func__.pg_terminate_backend) #8
  unreachable

30:                                               ; preds = %13
  %31 = icmp eq i32 %14, 0
  %32 = icmp ne i32 %7, 0
  %or.cond = and i1 %32, %31
  br i1 %or.cond, label %33, label %pg_wait_until_termination.exit

33:                                               ; preds = %30
  %34 = and i64 %6, 2147483647
  br label %35

35:                                               ; preds = %49, %33
  %.013.i = phi i64 [ 100, %33 ], [ %spec.select.i, %49 ]
  %.0.i = phi i64 [ %34, %33 ], [ %53, %49 ]
  %spec.select.i = tail call i64 @llvm.smin.i64(i64 %.0.i, i64 %.013.i)
  %36 = tail call i32 @kill(i32 noundef %4, i32 noundef 0) #8
  %37 = icmp eq i32 %36, -1
  br i1 %37, label %38, label %46

38:                                               ; preds = %35
  %39 = tail call ptr @__errno_location() #9
  %40 = load i32, ptr %39, align 4
  %41 = icmp eq i32 %40, 3
  br i1 %41, label %pg_wait_until_termination.exit, label %42

42:                                               ; preds = %38
  %43 = tail call zeroext i1 @errstart_cold(i32 noundef 21, ptr noundef null) #7
  tail call void @llvm.assume(i1 %43)
  %44 = tail call i32 @errcode(i32 noundef 2600) #8
  %45 = tail call i32 (ptr, ...) @errmsg(ptr noundef nonnull @.str.17, i32 noundef %4) #8
  tail call void @errfinish(ptr noundef nonnull @.str.3, i32 noundef 201, ptr noundef nonnull @__func__.pg_wait_until_termination) #8
  unreachable

46:                                               ; preds = %35
  %47 = load volatile i32, ptr @InterruptPending, align 4
  %.not.i = icmp eq i32 %47, 0
  br i1 %.not.i, label %49, label %48, !prof !4

48:                                               ; preds = %46
  tail call void @ProcessInterrupts() #8
  br label %49

49:                                               ; preds = %48, %46
  %50 = load ptr, ptr @MyLatch, align 8
  %51 = tail call i32 @WaitLatch(ptr noundef %50, i32 noundef 41, i64 noundef %spec.select.i, i32 noundef 134217731) #8
  %52 = load ptr, ptr @MyLatch, align 8
  tail call void @ResetLatch(ptr noundef %52) #8
  %53 = sub nsw i64 %.0.i, %spec.select.i
  %54 = icmp sgt i64 %53, 0
  br i1 %54, label %35, label %55, !llvm.loop !5

55:                                               ; preds = %49
  %56 = tail call zeroext i1 @errstart(i32 noundef 19, ptr noundef null) #8
  br i1 %56, label %57, label %pg_wait_until_termination.exit

57:                                               ; preds = %55
  %58 = tail call i32 (ptr, ptr, i64, ...) @errmsg_plural(ptr noundef nonnull @.str.18, ptr noundef nonnull @.str.19, i64 noundef range(i64 1, 2147483648) %34, i32 noundef %4, i64 noundef range(i64 1, 2147483648) %34) #8
  tail call void @errfinish(ptr noundef nonnull @.str.3, i32 noundef 221, ptr noundef nonnull @__func__.pg_wait_until_termination) #8
  br label %pg_wait_until_termination.exit

pg_wait_until_termination.exit:                   ; preds = %30, %57, %55, %38
  %.0.in = phi i1 [ true, %38 ], [ false, %55 ], [ false, %57 ], [ %31, %30 ]
  %.0 = zext i1 %.0.in to i64
  ret i64 %.0
}